target datalayout = "e-m:e-p270:32:32-p271:32:32-p272:64:64-i64:64-i128:128-f80:128-n8:16:32:64-S128"
target triple = "x86_64-pc-linux-gnu"

%struct.typenode = type { i16, i64, ptr, ptr, ptr, ptr, ptr, ptr, ptr, ptr, ptr }
%struct.fieldnode = type { i16, i16, i16, i16, i16, i32, i32, i32, i32, i16, i16, i16, i16, i32, i32, i32, i32, ptr, ptr, ptr, ptr, ptr, ptr, ptr, ptr }

; Function Attrs: nounwind uwtable
define dso_local void @_nc_Free_Type(ptr noundef %0) #0 {
  %2 = alloca ptr, align 8
  store ptr %0, ptr %2, align 8, !tbaa !29
  %3 = load ptr, ptr %2, align 8, !tbaa !29
  %4 = getelementptr inbounds nuw %struct.fieldnode, ptr %3, i32 0, i32 21
  %5 = load ptr, ptr %4, align 8, !tbaa !31
  %6 = icmp ne ptr %5, null
  br i1 %6, label %7, label %14

7:                                                ; preds = %1
  %8 = load ptr, ptr %2, align 8, !tbaa !29
  %9 = getelementptr inbounds nuw %struct.fieldnode, ptr %8, i32 0, i32 21
  %10 = load ptr, ptr %9, align 8, !tbaa !31
  %11 = getelementptr inbounds nuw %struct.typenode, ptr %10, i32 0, i32 1
  %12 = load i64, ptr %11, align 8, !tbaa !36
  %13 = add nsw i64 %12, -1
  store i64 %13, ptr %11, align 8, !tbaa !36
  br label %14

14:                                               ; preds = %7, %1
  %15 = load ptr, ptr %2, align 8, !tbaa !29
  %16 = getelementptr inbounds nuw %struct.fieldnode, ptr %15, i32 0, i32 21
  %17 = load ptr, ptr %16, align 8, !tbaa !31
  %18 = load ptr, ptr %2, align 8, !tbaa !29
  %19 = getelementptr inbounds nuw %struct.fieldnode, ptr %18, i32 0, i32 22
  %20 = load ptr, ptr %19, align 8, !tbaa !35
  call void @_nc_Free_Argument(ptr noundef %17, ptr noundef %20)
  ret void
}