; Function Attrs: nounwind uwtable
define dso_local void @_nc_Free_Type(ptr noundef readonly captures(none) %0) local_unnamed_addr #0 {
  %2 = getelementptr inbounds nuw i8, ptr %0, i64 88
  %3 = load ptr, ptr %2, align 8, !tbaa !23
  %.not = icmp eq ptr %3, null
  br i1 %.not, label %8, label %4

4:                                                ; preds = %1
  %5 = getelementptr inbounds nuw i8, ptr %3, i64 8
  %6 = load i64, ptr %5, align 8, !tbaa !29
  %7 = add nsw i64 %6, -1
  store i64 %7, ptr %5, align 8, !tbaa !29
  br label %8

8:                                                ; preds = %4, %1
  %9 = getelementptr inbounds nuw i8, ptr %0, i64 96
  %10 = load ptr, ptr %9, align 8, !tbaa !28
  tail call void @_nc_Free_Argument(ptr noundef %3, ptr noundef %10)
  ret void
}